target datalayout = "e-m:e-p270:32:32-p271:32:32-p272:64:64-i64:64-i128:128-f80:128-n8:16:32:64-S128"
target triple = "x86_64-pc-linux-gnu"

%struct.H5D_chk_idx_info_t = type { ptr, ptr, ptr, ptr }
%struct.H5O_storage_chunk_t = type { i32, i64, ptr, %union.anon.4 }
%union.anon.4 = type { %struct.H5O_storage_chunk_btree_t }
%struct.H5O_storage_chunk_btree_t = type { i64, ptr }
%struct.H5O_storage_chunk_farray_t = type { i64, ptr }
%struct.H5D_farray_ctx_ud_t = type { ptr, i32 }
%struct.H5O_layout_chunk_t = type { i32, i8, i32, [33 x i32], i32, i32, i64, i64, [33 x i64], [33 x i64], [33 x i64], [33 x i64], %union.anon.0 }
%union.anon.0 = type { %struct.H5O_layout_chunk_earray_t }
%struct.H5O_layout_chunk_earray_t = type { %struct.anon.1, i32, [33 x i32], [33 x i64], [33 x i64] }
%struct.anon.1 = type { i8, i8, i8, i8, i8 }

@.str.2 = private unnamed_addr constant [103 x i8] c"generated/home/dtcxzyw/WorkSpace/Projects/compilers/llvm-opt-benchmark/bench/hdf5/hdf5/src/H5Dfarray.c\00", align 1
@H5E_DATASET_g = external global i64, align 8
@H5E_CANTINIT_g = external global i64, align 8
@H5E_CANTDEPEND_g = external global i64, align 8
@.str.15 = private unnamed_addr constant [51 x i8] c"unable to create flush dependency on object header\00", align 1
@__func__.H5D__farray_idx_open = private unnamed_addr constant [21 x i8] c"H5D__farray_idx_open\00", align 1
@.str.20 = private unnamed_addr constant [23 x i8] c"can't open fixed array\00", align 1

; Function Attrs: nounwind uwtable
define internal i32 @H5D__farray_idx_open(ptr noundef %0) #0 {
  %2 = alloca ptr, align 8
  %3 = alloca %struct.H5D_farray_ctx_ud_t, align 8
  %4 = alloca i32, align 4
  %5 = alloca i8, align 1
  store ptr %0, ptr %2, align 8
  store i32 0, ptr %4, align 4
  store i8 0, ptr %5, align 1
  %6 = load ptr, ptr %2, align 8
  %7 = getelementptr inbounds %struct.H5D_chk_idx_info_t, ptr %6, i32 0, i32 0
  %8 = load ptr, ptr %7, align 8
  %9 = getelementptr inbounds %struct.H5D_farray_ctx_ud_t, ptr %3, i32 0, i32 0
  store ptr %8, ptr %9, align 8
  %10 = load ptr, ptr %2, align 8
  %11 = getelementptr inbounds %struct.H5D_chk_idx_info_t, ptr %10, i32 0, i32 2
  %12 = load ptr, ptr %11, align 8
  %13 = getelementptr inbounds %struct.H5O_layout_chunk_t, ptr %12, i32 0, i32 5
  %14 = load i32, ptr %13, align 4
  %15 = getelementptr inbounds %struct.H5D_farray_ctx_ud_t, ptr %3, i32 0, i32 1
  store i32 %14, ptr %15, align 8
  %16 = load ptr, ptr %2, align 8
  %17 = getelementptr inbounds %struct.H5D_chk_idx_info_t, ptr %16, i32 0, i32 0
  %18 = load ptr, ptr %17, align 8
  %19 = load ptr, ptr %2, align 8
  %20 = getelementptr inbounds %struct.H5D_chk_idx_info_t, ptr %19, i32 0, i32 3
  %21 = load ptr, ptr %20, align 8
  %22 = getelementptr inbounds %struct.H5O_storage_chunk_t, ptr %21, i32 0, i32 1
  %23 = load i64, ptr %22, align 8
  %24 = call ptr @H5FA_open(ptr noundef %18, i64 noundef %23, ptr noundef %3)
  %25 = load ptr, ptr %2, align 8
  %26 = getelementptr inbounds %struct.H5D_chk_idx_info_t, ptr %25, i32 0, i32 3
  %27 = load ptr, ptr %26, align 8
  %28 = getelementptr inbounds %struct.H5O_storage_chunk_t, ptr %27, i32 0, i32 3
  %29 = getelementptr inbounds %struct.H5O_storage_chunk_farray_t, ptr %28, i32 0, i32 1
  store ptr %24, ptr %29, align 8
  %30 = icmp eq ptr null, %24
  br i1 %30, label %31, label %46

31:                                               ; preds = %1
  br label %32

32:                                               ; preds = %31
  br label %33

33:                                               ; preds = %32
  br label %34

34:                                               ; preds = %33
  %35 = load i64, ptr @H5E_DATASET_g, align 8
  %36 = load i64, ptr @H5E_CANTINIT_g, align 8
  %37 = call i32 (ptr, ptr, i32, i64, i64, ptr, ...) @H5E_printf_stack(ptr noundef @.str.2, ptr noundef @__func__.H5D__farray_idx_open, i32 noundef 853, i64 noundef %35, i64 noundef %36, ptr noundef @.str.20)
  br label %38

38:                                               ; preds = %34
  store i8 1, ptr %5, align 1
  %39 = load i8, ptr %5, align 1
  %40 = trunc i8 %39 to i1
  %41 = zext i1 %40 to i8
  store i8 %41, ptr %5, align 1
  br label %42

42:                                               ; preds = %38
  br label %43

43:                                               ; preds = %42
  store i32 -1, ptr %4, align 4
  br label %74

44:                                               ; No predecessors!
  br label %45

45:                                               ; preds = %44
  br label %46

46:                                               ; preds = %45, %1
  %47 = load ptr, ptr %2, align 8
  %48 = getelementptr inbounds %struct.H5D_chk_idx_info_t, ptr %47, i32 0, i32 0
  %49 = load ptr, ptr %48, align 8
  %50 = call i32 @H5F_get_intent(ptr noundef %49)
  %51 = and i32 %50, 32
  %52 = icmp ne i32 %51, 0
  br i1 %52, label %53, label %73

53:                                               ; preds = %46
  %54 = load ptr, ptr %2, align 8
  %55 = call i32 @H5D__farray_idx_depend(ptr noundef %54)
  %56 = icmp slt i32 %55, 0
  br i1 %56, label %57, label %72

57:                                               ; preds = %53
  br label %58

58:                                               ; preds = %57
  br label %59

59:                                               ; preds = %58
  br label %60

60:                                               ; preds = %59
  %61 = load i64, ptr @H5E_DATASET_g, align 8
  %62 = load i64, ptr @H5E_CANTDEPEND_g, align 8
  %63 = call i32 (ptr, ptr, i32, i64, i64, ptr, ...) @H5E_printf_stack(ptr noundef @.str.2, ptr noundef @__func__.H5D__farray_idx_open, i32 noundef 859, i64 noundef %61, i64 noundef %62, ptr noundef @.str.15)
  br label %64

64:                                               ; preds = %60
  store i8 1, ptr %5, align 1
  %65 = load i8, ptr %5, align 1
  %66 = trunc i8 %65 to i1
  %67 = zext i1 %66 to i8
  store i8 %67, ptr %5, align 1
  br label %68

68:                                               ; preds = %64
  br label %69

69:                                               ; preds = %68
  store i32 -1, ptr %4, align 4
  br label %74

70:                                               ; No predecessors!
  br label %71

71:                                               ; preds = %70
  br label %72

72:                                               ; preds = %71, %53
  br label %73

73:                                               ; preds = %72, %46
  br label %74

74:                                               ; preds = %73, %69, %43
  %75 = load i32, ptr %4, align 4
  ret i32 %75
}