; Function Attrs: nounwind uwtable
define internal range(i32 -1, 1) i32 @H5D__farray_idx_open(ptr nocapture noundef readonly %0) #1 {
  %2 = alloca %struct.H5D_farray_ctx_ud_t, align 8
  %3 = load ptr, ptr %0, align 8
  store ptr %3, ptr %2, align 8
  %4 = getelementptr inbounds i8, ptr %0, i64 16
  %5 = load ptr, ptr %4, align 8
  %6 = getelementptr inbounds i8, ptr %5, i64 148
  %7 = load i32, ptr %6, align 4
  %8 = getelementptr inbounds i8, ptr %2, i64 8
  store i32 %7, ptr %8, align 8
  %9 = getelementptr inbounds i8, ptr %0, i64 24
  %10 = load ptr, ptr %9, align 8
  %11 = getelementptr inbounds i8, ptr %10, i64 8
  %12 = load i64, ptr %11, align 8
  %13 = call ptr @H5FA_open(ptr noundef %3, i64 noundef %12, ptr noundef nonnull %2) #11
  %14 = load ptr, ptr %9, align 8
  %15 = getelementptr inbounds i8, ptr %14, i64 32
  store ptr %13, ptr %15, align 8
  %16 = icmp eq ptr %13, null
  br i1 %16, label %17, label %21

17:                                               ; preds = %1
  %18 = load i64, ptr @H5E_DATASET_g, align 8
  %19 = load i64, ptr @H5E_CANTINIT_g, align 8
  %20 = call i32 (ptr, ptr, i32, i64, i64, ptr, ...) @H5E_printf_stack(ptr noundef nonnull @.str.2, ptr noundef nonnull @__func__.H5D__farray_idx_open, i32 noundef 853, i64 noundef %18, i64 noundef %19, ptr noundef nonnull @.str.20) #11
  br label %32

21:                                               ; preds = %1
  %22 = load ptr, ptr %0, align 8
  %23 = call i32 @H5F_get_intent(ptr noundef %22) #11
  %24 = and i32 %23, 32
  %.not = icmp eq i32 %24, 0
  br i1 %.not, label %32, label %25

25:                                               ; preds = %21
  %26 = call fastcc i32 @H5D__farray_idx_depend(ptr noundef nonnull %0)
  %27 = icmp slt i32 %26, 0
  br i1 %27, label %28, label %32

28:                                               ; preds = %25
  %29 = load i64, ptr @H5E_DATASET_g, align 8
  %30 = load i64, ptr @H5E_CANTDEPEND_g, align 8
  %31 = call i32 (ptr, ptr, i32, i64, i64, ptr, ...) @H5E_printf_stack(ptr noundef nonnull @.str.2, ptr noundef nonnull @__func__.H5D__farray_idx_open, i32 noundef 859, i64 noundef %29, i64 noundef %30, ptr noundef nonnull @.str.15) #11
  br label %32

32:                                               ; preds = %21, %25, %28, %17
  %.0 = phi i32 [ -1, %17 ], [ -1, %28 ], [ 0, %25 ], [ 0, %21 ]
  ret i32 %.0
}